target datalayout = "e-m:e-p270:32:32-p271:32:32-p272:64:64-i64:64-i128:128-f80:128-n8:16:32:64-S128"
target triple = "x86_64-pc-linux-gnu"

%struct.Iff_Man_t_ = type { ptr, ptr, i32, i32, ptr, [4 x ptr] }
%struct.Vec_Flt_t_ = type { i32, i32, ptr }
%struct.Gia_Man_t_ = type { ptr, ptr, i32, i32, i32, i32, ptr, ptr, i32, i32, i32, ptr, ptr, %struct.Vec_Int_t_, %struct.Vec_Int_t_, i32, i32, i32, %struct.Vec_Int_t_, ptr, ptr, ptr, i32, i32, i32, i32, ptr, ptr, ptr, ptr, ptr, i32, i32, ptr, i32, ptr, ptr, ptr, ptr, ptr, ptr, ptr, ptr, ptr, ptr, ptr, ptr, ptr, ptr, ptr, ptr, ptr, ptr, %struct.Vec_Int_t_, %struct.Vec_Int_t_, ptr, ptr, ptr, ptr, ptr, ptr, ptr, ptr, ptr, ptr, ptr, ptr, ptr, ptr, ptr, ptr, ptr, ptr, ptr, ptr, ptr, i32, float, float, ptr, ptr, i32, ptr, ptr, ptr, ptr, ptr, ptr, ptr, ptr, ptr, ptr, ptr, ptr, ptr, ptr, ptr, i64, i64, ptr, ptr, i32, i32, i32, i32, i32, i32, i32, i32, i32, i32, i32, i32, ptr, ptr, ptr, ptr, ptr, ptr, ptr, ptr, i32, i32, i32, ptr, i32, i32, ptr, ptr, ptr, ptr, ptr, ptr, i32, i32, ptr, %struct.Vec_Int_t_, %struct.Vec_Int_t_, %struct.Vec_Int_t_, ptr, ptr, ptr, i32, i32, i32, i32, ptr, ptr, ptr, ptr, ptr }
%struct.Vec_Int_t_ = type { i32, i32, ptr }

; Function Attrs: inlinehint nounwind uwtable
define internal float @Vec_FltEntry(ptr noundef %0, i32 noundef %1) #3 {
  %3 = alloca ptr, align 8
  %4 = alloca i32, align 4
  store ptr %0, ptr %3, align 8, !tbaa !18
  store i32 %1, ptr %4, align 4, !tbaa !17
  %5 = load ptr, ptr %3, align 8, !tbaa !18
  %6 = getelementptr inbounds nuw %struct.Vec_Flt_t_, ptr %5, i32 0, i32 2
  %7 = load ptr, ptr %6, align 8, !tbaa !22
  %8 = load i32, ptr %4, align 4, !tbaa !17
  %9 = sext i32 %8 to i64
  %10 = getelementptr inbounds float, ptr %7, i64 %9
  %11 = load float, ptr %10, align 4, !tbaa !50
  ret float %11
}

; Function Attrs: inlinehint nounwind uwtable
define internal ptr @Vec_IntEntryP(ptr noundef %0, i32 noundef %1) #3 {
  %3 = alloca ptr, align 8
  %4 = alloca i32, align 4
  store ptr %0, ptr %3, align 8, !tbaa !15
  store i32 %1, ptr %4, align 4, !tbaa !17
  %5 = load ptr, ptr %3, align 8, !tbaa !15
  %6 = getelementptr inbounds nuw %struct.Vec_Int_t_, ptr %5, i32 0, i32 2
  %7 = load ptr, ptr %6, align 8, !tbaa !42
  %8 = load i32, ptr %4, align 4, !tbaa !17
  %9 = sext i32 %8 to i64
  %10 = getelementptr inbounds i32, ptr %7, i64 %9
  ret ptr %10
}

; Function Attrs: inlinehint nounwind uwtable
define internal i32 @Vec_IntEntry(ptr noundef %0, i32 noundef %1) #3 {
  %3 = alloca ptr, align 8
  %4 = alloca i32, align 4
  store ptr %0, ptr %3, align 8, !tbaa !15
  store i32 %1, ptr %4, align 4, !tbaa !17
  %5 = load ptr, ptr %3, align 8, !tbaa !15
  %6 = getelementptr inbounds nuw %struct.Vec_Int_t_, ptr %5, i32 0, i32 2
  %7 = load ptr, ptr %6, align 8, !tbaa !42
  %8 = load i32, ptr %4, align 4, !tbaa !17
  %9 = sext i32 %8 to i64
  %10 = getelementptr inbounds i32, ptr %7, i64 %9
  %11 = load i32, ptr %10, align 4, !tbaa !17
  ret i32 %11
}

; Function Attrs: inlinehint nounwind uwtable
define internal float @Iff_ObjTimeId(ptr noundef %0, i32 noundef %1) #3 {
  %3 = alloca ptr, align 8
  %4 = alloca i32, align 4
  store ptr %0, ptr %3, align 8, !tbaa !8
  store i32 %1, ptr %4, align 4, !tbaa !17
  %5 = load ptr, ptr %3, align 8, !tbaa !8
  %6 = getelementptr inbounds nuw %struct.Iff_Man_t_, ptr %5, i32 0, i32 4
  %7 = load ptr, ptr %6, align 8, !tbaa !10
  %8 = load i32, ptr %4, align 4, !tbaa !17
  %9 = call float @Vec_FltEntry(ptr noundef %7, i32 noundef %8)
  ret float %9
}

; Function Attrs: inlinehint nounwind uwtable
define internal ptr @Gia_ObjLutFanins(ptr noundef %0, i32 noundef %1) #3 {
  %3 = alloca ptr, align 8
  %4 = alloca i32, align 4
  store ptr %0, ptr %3, align 8, !tbaa !3
  store i32 %1, ptr %4, align 4, !tbaa !17
  %5 = load ptr, ptr %3, align 8, !tbaa !3
  %6 = getelementptr inbounds nuw %struct.Gia_Man_t_, ptr %5, i32 0, i32 37
  %7 = load ptr, ptr %6, align 8, !tbaa !47
  %8 = load ptr, ptr %3, align 8, !tbaa !3
  %9 = getelementptr inbounds nuw %struct.Gia_Man_t_, ptr %8, i32 0, i32 37
  %10 = load ptr, ptr %9, align 8, !tbaa !47
  %11 = load i32, ptr %4, align 4, !tbaa !17
  %12 = call i32 @Vec_IntEntry(ptr noundef %10, i32 noundef %11)
  %13 = call ptr @Vec_IntEntryP(ptr noundef %7, i32 noundef %12)
  %14 = getelementptr inbounds i32, ptr %13, i64 1
  ret ptr %14
}

; Function Attrs: inlinehint nounwind uwtable
define internal i32 @Gia_ObjLutSize(ptr noundef %0, i32 noundef %1) #3 {
  %3 = alloca ptr, align 8
  %4 = alloca i32, align 4
  store ptr %0, ptr %3, align 8, !tbaa !3
  store i32 %1, ptr %4, align 4, !tbaa !17
  %5 = load ptr, ptr %3, align 8, !tbaa !3
  %6 = getelementptr inbounds nuw %struct.Gia_Man_t_, ptr %5, i32 0, i32 37
  %7 = load ptr, ptr %6, align 8, !tbaa !47
  %8 = load ptr, ptr %3, align 8, !tbaa !3
  %9 = getelementptr inbounds nuw %struct.Gia_Man_t_, ptr %8, i32 0, i32 37
  %10 = load ptr, ptr %9, align 8, !tbaa !47
  %11 = load i32, ptr %4, align 4, !tbaa !17
  %12 = call i32 @Vec_IntEntry(ptr noundef %10, i32 noundef %11)
  %13 = call i32 @Vec_IntEntry(ptr noundef %7, i32 noundef %12)
  ret i32 %13
}

; Function Attrs: nounwind uwtable
define float @Gia_IffObjTimeOne(ptr noundef %0, i32 noundef %1, i32 noundef %2, i32 noundef %3) #0 {
  %5 = alloca float, align 4
  %6 = alloca ptr, align 8
  %7 = alloca i32, align 4
  %8 = alloca i32, align 4
  %9 = alloca i32, align 4
  %10 = alloca i32, align 4
  %11 = alloca i32, align 4
  %12 = alloca float, align 4
  %13 = alloca i32, align 4
  store ptr %0, ptr %6, align 8, !tbaa !8
  store i32 %1, ptr %7, align 4, !tbaa !17
  store i32 %2, ptr %8, align 4, !tbaa !17
  store i32 %3, ptr %9, align 4, !tbaa !17
  call void @llvm.lifetime.start.p0(i64 4, ptr %10) #9
  call void @llvm.lifetime.start.p0(i64 4, ptr %11) #9
  call void @llvm.lifetime.start.p0(i64 4, ptr %12) #9
  store float -1.000000e+09, ptr %12, align 4, !tbaa !50
  store i32 0, ptr %10, align 4, !tbaa !17
  br label %14

14:                                               ; preds = %53, %4
  %15 = load i32, ptr %10, align 4, !tbaa !17
  %16 = load ptr, ptr %6, align 8, !tbaa !8
  %17 = getelementptr inbounds nuw %struct.Iff_Man_t_, ptr %16, i32 0, i32 0
  %18 = load ptr, ptr %17, align 8, !tbaa !51
  %19 = load i32, ptr %7, align 4, !tbaa !17
  %20 = call i32 @Gia_ObjLutSize(ptr noundef %18, i32 noundef %19)
  %21 = icmp slt i32 %15, %20
  br i1 %21, label %22, label %32

22:                                               ; preds = %14
  %23 = load ptr, ptr %6, align 8, !tbaa !8
  %24 = getelementptr inbounds nuw %struct.Iff_Man_t_, ptr %23, i32 0, i32 0
  %25 = load ptr, ptr %24, align 8, !tbaa !51
  %26 = load i32, ptr %7, align 4, !tbaa !17
  %27 = call ptr @Gia_ObjLutFanins(ptr noundef %25, i32 noundef %26)
  %28 = load i32, ptr %10, align 4, !tbaa !17
  %29 = sext i32 %28 to i64
  %30 = getelementptr inbounds i32, ptr %27, i64 %29
  %31 = load i32, ptr %30, align 4, !tbaa !17
  store i32 %31, ptr %11, align 4, !tbaa !17
  br label %32

32:                                               ; preds = %22, %14
  %33 = phi i1 [ false, %14 ], [ true, %22 ]
  br i1 %33, label %34, label %56

34:                                               ; preds = %32
  %35 = load i32, ptr %11, align 4, !tbaa !17
  %36 = load i32, ptr %8, align 4, !tbaa !17
  %37 = icmp ne i32 %35, %36
  br i1 %37, label %38, label %52

38:                                               ; preds = %34
  %39 = load i32, ptr %11, align 4, !tbaa !17
  %40 = load i32, ptr %9, align 4, !tbaa !17
  %41 = icmp ne i32 %39, %40
  br i1 %41, label %42, label %52

42:                                               ; preds = %38
  %43 = load float, ptr %12, align 4, !tbaa !50
  %44 = load ptr, ptr %6, align 8, !tbaa !8
  %45 = load i32, ptr %11, align 4, !tbaa !17
  %46 = call float @Iff_ObjTimeId(ptr noundef %44, i32 noundef %45)
  %47 = fcmp olt float %43, %46
  br i1 %47, label %48, label %52

48:                                               ; preds = %42
  %49 = load ptr, ptr %6, align 8, !tbaa !8
  %50 = load i32, ptr %11, align 4, !tbaa !17
  %51 = call float @Iff_ObjTimeId(ptr noundef %49, i32 noundef %50)
  store float %51, ptr %12, align 4, !tbaa !50
  br label %52

52:                                               ; preds = %48, %42, %38, %34
  br label %53

53:                                               ; preds = %52
  %54 = load i32, ptr %10, align 4, !tbaa !17
  %55 = add nsw i32 %54, 1
  store i32 %55, ptr %10, align 4, !tbaa !17
  br label %14, !llvm.loop !52

56:                                               ; preds = %32
  %57 = load i32, ptr %8, align 4, !tbaa !17
  %58 = icmp eq i32 %57, -1
  br i1 %58, label %59, label %61

59:                                               ; preds = %56
  %60 = load float, ptr %12, align 4, !tbaa !50
  store float %60, ptr %5, align 4
  store i32 1, ptr %13, align 4
  br label %146

61:                                               ; preds = %56
  store i32 0, ptr %10, align 4, !tbaa !17
  br label %62

62:                                               ; preds = %97, %61
  %63 = load i32, ptr %10, align 4, !tbaa !17
  %64 = load ptr, ptr %6, align 8, !tbaa !8
  %65 = getelementptr inbounds nuw %struct.Iff_Man_t_, ptr %64, i32 0, i32 0
  %66 = load ptr, ptr %65, align 8, !tbaa !51
  %67 = load i32, ptr %8, align 4, !tbaa !17
  %68 = call i32 @Gia_ObjLutSize(ptr noundef %66, i32 noundef %67)
  %69 = icmp slt i32 %63, %68
  br i1 %69, label %70, label %80

70:                                               ; preds = %62
  %71 = load ptr, ptr %6, align 8, !tbaa !8
  %72 = getelementptr inbounds nuw %struct.Iff_Man_t_, ptr %71, i32 0, i32 0
  %73 = load ptr, ptr %72, align 8, !tbaa !51
  %74 = load i32, ptr %8, align 4, !tbaa !17
  %75 = call ptr @Gia_ObjLutFanins(ptr noundef %73, i32 noundef %74)
  %76 = load i32, ptr %10, align 4, !tbaa !17
  %77 = sext i32 %76 to i64
  %78 = getelementptr inbounds i32, ptr %75, i64 %77
  %79 = load i32, ptr %78, align 4, !tbaa !17
  store i32 %79, ptr %11, align 4, !tbaa !17
  br label %80

80:                                               ; preds = %70, %62
  %81 = phi i1 [ false, %62 ], [ true, %70 ]
  br i1 %81, label %82, label %100

82:                                               ; preds = %80
  %83 = load i32, ptr %11, align 4, !tbaa !17
  %84 = load i32, ptr %9, align 4, !tbaa !17
  %85 = icmp ne i32 %83, %84
  br i1 %85, label %86, label %96

86:                                               ; preds = %82
  %87 = load float, ptr %12, align 4, !tbaa !50
  %88 = load ptr, ptr %6, align 8, !tbaa !8
  %89 = load i32, ptr %11, align 4, !tbaa !17
  %90 = call float @Iff_ObjTimeId(ptr noundef %88, i32 noundef %89)
  %91 = fcmp olt float %87, %90
  br i1 %91, label %92, label %96

92:                                               ; preds = %86
  %93 = load ptr, ptr %6, align 8, !tbaa !8
  %94 = load i32, ptr %11, align 4, !tbaa !17
  %95 = call float @Iff_ObjTimeId(ptr noundef %93, i32 noundef %94)
  store float %95, ptr %12, align 4, !tbaa !50
  br label %96

96:                                               ; preds = %92, %86, %82
  br label %97

97:                                               ; preds = %96
  %98 = load i32, ptr %10, align 4, !tbaa !17
  %99 = add nsw i32 %98, 1
  store i32 %99, ptr %10, align 4, !tbaa !17
  br label %62, !llvm.loop !53

100:                                              ; preds = %80
  %101 = load i32, ptr %9, align 4, !tbaa !17
  %102 = icmp eq i32 %101, -1
  br i1 %102, label %103, label %105

103:                                              ; preds = %100
  %104 = load float, ptr %12, align 4, !tbaa !50
  store float %104, ptr %5, align 4
  store i32 1, ptr %13, align 4
  br label %146

105:                                              ; preds = %100
  store i32 0, ptr %10, align 4, !tbaa !17
  br label %106

106:                                              ; preds = %141, %105
  %107 = load i32, ptr %10, align 4, !tbaa !17
  %108 = load ptr, ptr %6, align 8, !tbaa !8
  %109 = getelementptr inbounds nuw %struct.Iff_Man_t_, ptr %108, i32 0, i32 0
  %110 = load ptr, ptr %109, align 8, !tbaa !51
  %111 = load i32, ptr %9, align 4, !tbaa !17
  %112 = call i32 @Gia_ObjLutSize(ptr noundef %110, i32 noundef %111)
  %113 = icmp slt i32 %107, %112
  br i1 %113, label %114, label %124

114:                                              ; preds = %106
  %115 = load ptr, ptr %6, align 8, !tbaa !8
  %116 = getelementptr inbounds nuw %struct.Iff_Man_t_, ptr %115, i32 0, i32 0
  %117 = load ptr, ptr %116, align 8, !tbaa !51
  %118 = load i32, ptr %9, align 4, !tbaa !17
  %119 = call ptr @Gia_ObjLutFanins(ptr noundef %117, i32 noundef %118)
  %120 = load i32, ptr %10, align 4, !tbaa !17
  %121 = sext i32 %120 to i64
  %122 = getelementptr inbounds i32, ptr %119, i64 %121
  %123 = load i32, ptr %122, align 4, !tbaa !17
  store i32 %123, ptr %11, align 4, !tbaa !17
  br label %124

124:                                              ; preds = %114, %106
  %125 = phi i1 [ false, %106 ], [ true, %114 ]
  br i1 %125, label %126, label %144

126:                                              ; preds = %124
  %127 = load i32, ptr %11, align 4, !tbaa !17
  %128 = load i32, ptr %8, align 4, !tbaa !17
  %129 = icmp ne i32 %127, %128
  br i1 %129, label %130, label %140

130:                                              ; preds = %126
  %131 = load float, ptr %12, align 4, !tbaa !50
  %132 = load ptr, ptr %6, align 8, !tbaa !8
  %133 = load i32, ptr %11, align 4, !tbaa !17
  %134 = call float @Iff_ObjTimeId(ptr noundef %132, i32 noundef %133)
  %135 = fcmp olt float %131, %134
  br i1 %135, label %136, label %140

136:                                              ; preds = %130
  %137 = load ptr, ptr %6, align 8, !tbaa !8
  %138 = load i32, ptr %11, align 4, !tbaa !17
  %139 = call float @Iff_ObjTimeId(ptr noundef %137, i32 noundef %138)
  store float %139, ptr %12, align 4, !tbaa !50
  br label %140

140:                                              ; preds = %136, %130, %126
  br label %141

141:                                              ; preds = %140
  %142 = load i32, ptr %10, align 4, !tbaa !17
  %143 = add nsw i32 %142, 1
  store i32 %143, ptr %10, align 4, !tbaa !17
  br label %106, !llvm.loop !54

144:                                              ; preds = %124
  %145 = load float, ptr %12, align 4, !tbaa !50
  store float %145, ptr %5, align 4
  store i32 1, ptr %13, align 4
  br label %146

146:                                              ; preds = %144, %103, %59
  call void @llvm.lifetime.end.p0(i64 4, ptr %12) #9
  call void @llvm.lifetime.end.p0(i64 4, ptr %11) #9
  call void @llvm.lifetime.end.p0(i64 4, ptr %10) #9
  %147 = load float, ptr %5, align 4
  ret float %147
}