; Function Attrs: nofree norecurse nosync nounwind memory(read, inaccessiblemem: none) uwtable
define float @Gia_IffObjTimeOne(ptr noundef readonly captures(none) %0, i32 noundef %1, i32 noundef %2, i32 noundef %3) local_unnamed_addr #7 {
  %5 = load ptr, ptr %0, align 8, !tbaa !48
  %6 = getelementptr i8, ptr %5, i64 264
  %.val66 = load ptr, ptr %6, align 8, !tbaa !40
  %7 = getelementptr i8, ptr %.val66, i64 8
  %.val66.val = load ptr, ptr %7, align 8, !tbaa !37
  %8 = sext i32 %1 to i64
  %9 = getelementptr inbounds i32, ptr %.val66.val, i64 %8
  %10 = load i32, ptr %9, align 4, !tbaa !41
  %11 = sext i32 %10 to i64
  %12 = getelementptr inbounds i32, ptr %.val66.val, i64 %11
  %13 = load i32, ptr %12, align 4, !tbaa !41
  %14 = icmp sgt i32 %13, 0
  br i1 %14, label %.lr.ph, label %.critedge

.lr.ph:                                           ; preds = %4
  %15 = getelementptr inbounds nuw i8, ptr %12, i64 4
  %16 = getelementptr i8, ptr %0, i64 24
  %wide.trip.count = zext nneg i32 %13 to i64
  br label %17

17:                                               ; preds = %.lr.ph, %27
  %indvars.iv = phi i64 [ 0, %.lr.ph ], [ %indvars.iv.next, %27 ]
  %.078 = phi float [ -1.000000e+09, %.lr.ph ], [ %.1, %27 ]
  %18 = getelementptr inbounds nuw i32, ptr %15, i64 %indvars.iv
  %19 = load i32, ptr %18, align 4, !tbaa !41
  %.not63 = icmp eq i32 %19, %2
  %.not64 = icmp eq i32 %19, %3
  %or.cond = or i1 %.not63, %.not64
  br i1 %or.cond, label %27, label %20

20:                                               ; preds = %17
  %.val70 = load ptr, ptr %16, align 8, !tbaa !33
  %21 = getelementptr i8, ptr %.val70, i64 8
  %.val70.val = load ptr, ptr %21, align 8, !tbaa !31
  %22 = sext i32 %19 to i64
  %23 = getelementptr inbounds float, ptr %.val70.val, i64 %22
  %24 = load float, ptr %23, align 4, !tbaa !49
  %25 = fcmp olt float %.078, %24
  br i1 %25, label %26, label %27

26:                                               ; preds = %20
  br label %27

27:                                               ; preds = %17, %20, %26
  %.1 = phi float [ %24, %26 ], [ %.078, %20 ], [ %.078, %17 ]
  %indvars.iv.next = add nuw nsw i64 %indvars.iv, 1
  %exitcond.not = icmp eq i64 %indvars.iv.next, %wide.trip.count
  br i1 %exitcond.not, label %.critedge, label %17, !llvm.loop !50

.critedge:                                        ; preds = %27, %4
  %.0.lcssa = phi float [ -1.000000e+09, %4 ], [ %.1, %27 ]
  %28 = icmp eq i32 %2, -1
  br i1 %28, label %.critedge4, label %.preheader76

.preheader76:                                     ; preds = %.critedge
  %29 = sext i32 %2 to i64
  %30 = getelementptr inbounds i32, ptr %.val66.val, i64 %29
  %31 = load i32, ptr %30, align 4, !tbaa !41
  %32 = sext i32 %31 to i64
  %33 = getelementptr inbounds i32, ptr %.val66.val, i64 %32
  %34 = load i32, ptr %33, align 4, !tbaa !41
  %35 = icmp sgt i32 %34, 0
  br i1 %35, label %.lr.ph82, label %.critedge2

.lr.ph82:                                         ; preds = %.preheader76
  %36 = getelementptr inbounds nuw i8, ptr %33, i64 4
  %37 = getelementptr i8, ptr %0, i64 24
  %wide.trip.count92 = zext nneg i32 %34 to i64
  br label %38

38:                                               ; preds = %.lr.ph82, %48
  %indvars.iv89 = phi i64 [ 0, %.lr.ph82 ], [ %indvars.iv.next90, %48 ]
  %.281 = phi float [ %.0.lcssa, %.lr.ph82 ], [ %.3, %48 ]
  %39 = getelementptr inbounds nuw i32, ptr %36, i64 %indvars.iv89
  %40 = load i32, ptr %39, align 4, !tbaa !41
  %.not62 = icmp eq i32 %40, %3
  br i1 %.not62, label %48, label %41

41:                                               ; preds = %38
  %.val72 = load ptr, ptr %37, align 8, !tbaa !33
  %42 = getelementptr i8, ptr %.val72, i64 8
  %.val72.val = load ptr, ptr %42, align 8, !tbaa !31
  %43 = sext i32 %40 to i64
  %44 = getelementptr inbounds float, ptr %.val72.val, i64 %43
  %45 = load float, ptr %44, align 4, !tbaa !49
  %46 = fcmp olt float %.281, %45
  br i1 %46, label %47, label %48

47:                                               ; preds = %41
  br label %48

48:                                               ; preds = %38, %41, %47
  %.3 = phi float [ %45, %47 ], [ %.281, %41 ], [ %.281, %38 ]
  %indvars.iv.next90 = add nuw nsw i64 %indvars.iv89, 1
  %exitcond93.not = icmp eq i64 %indvars.iv.next90, %wide.trip.count92
  br i1 %exitcond93.not, label %.critedge2, label %38, !llvm.loop !51

.critedge2:                                       ; preds = %48, %.preheader76
  %.2.lcssa = phi float [ %.0.lcssa, %.preheader76 ], [ %.3, %48 ]
  %49 = icmp eq i32 %3, -1
  br i1 %49, label %.critedge4, label %.preheader

.preheader:                                       ; preds = %.critedge2
  %50 = sext i32 %3 to i64
  %51 = getelementptr inbounds i32, ptr %.val66.val, i64 %50
  %52 = load i32, ptr %51, align 4, !tbaa !41
  %53 = sext i32 %52 to i64
  %54 = getelementptr inbounds i32, ptr %.val66.val, i64 %53
  %55 = load i32, ptr %54, align 4, !tbaa !41
  %56 = icmp sgt i32 %55, 0
  br i1 %56, label %.lr.ph86, label %.critedge4

.lr.ph86:                                         ; preds = %.preheader
  %57 = getelementptr inbounds nuw i8, ptr %54, i64 4
  %58 = getelementptr i8, ptr %0, i64 24
  %wide.trip.count97 = zext nneg i32 %55 to i64
  br label %59

59:                                               ; preds = %.lr.ph86, %69
  %indvars.iv94 = phi i64 [ 0, %.lr.ph86 ], [ %indvars.iv.next95, %69 ]
  %.485 = phi float [ %.2.lcssa, %.lr.ph86 ], [ %.5, %69 ]
  %60 = getelementptr inbounds nuw i32, ptr %57, i64 %indvars.iv94
  %61 = load i32, ptr %60, align 4, !tbaa !41
  %.not = icmp eq i32 %61, %2
  br i1 %.not, label %69, label %62

62:                                               ; preds = %59
  %.val74 = load ptr, ptr %58, align 8, !tbaa !33
  %63 = getelementptr i8, ptr %.val74, i64 8
  %.val74.val = load ptr, ptr %63, align 8, !tbaa !31
  %64 = sext i32 %61 to i64
  %65 = getelementptr inbounds float, ptr %.val74.val, i64 %64
  %66 = load float, ptr %65, align 4, !tbaa !49
  %67 = fcmp olt float %.485, %66
  br i1 %67, label %68, label %69

68:                                               ; preds = %62
  br label %69

69:                                               ; preds = %59, %62, %68
  %.5 = phi float [ %66, %68 ], [ %.485, %62 ], [ %.485, %59 ]
  %indvars.iv.next95 = add nuw nsw i64 %indvars.iv94, 1
  %exitcond98.not = icmp eq i64 %indvars.iv.next95, %wide.trip.count97
  br i1 %exitcond98.not, label %.critedge4, label %59, !llvm.loop !52

.critedge4:                                       ; preds = %69, %.preheader, %.critedge2, %.critedge
  %.056 = phi float [ %.0.lcssa, %.critedge ], [ %.2.lcssa, %.critedge2 ], [ %.2.lcssa, %.preheader ], [ %.5, %69 ]
  ret float %.056
}